Certificate:
    Data:
        Version: 3 (0x2)
        Serial Number:
            f4:de:12:5a:7d:7f:b6:e1
        Signature Algorithm: sha1WithRSAEncryption
        Issuer: C=NL, ST=Noord-Holland, O=SWI-Prolog foundation, OU=ClioPatria demo, CN=Jan Wielemaker/emailAddress=jan@swi-prolog.org
        Validity
            Not Before: Nov  3 20:51:12 2010 GMT
            Not After : Nov  2 20:51:12 2013 GMT
        Subject: C=NL, ST=Noord-Holland, O=SWI-Prolog foundation, OU=ClioPatria demo, CN=Jan Wielemaker/emailAddress=jan@swi-prolog.org
        Subject Public Key Info:
            Public Key Algorithm: rsaEncryption
            RSA Public Key: (1024 bit)
                Modulus (1024 bit):
                    00:c3:51:f6:d9:b8:32:31:9f:2e:a1:d0:3f:5a:f0:
                    53:9b:8e:38:81:d5:aa:a6:e3:54:16:dd:ba:9b:2b:
                    dc:ba:df:d0:73:54:eb:95:e4:7a:43:a4:d1:0c:88:
                    63:1c:92:4c:05:93:95:a6:ac:cd:84:be:02:b1:c1:
                    19:d0:44:39:9f:05:1f:00:c3:64:91:19:af:d8:38:
                    40:c8:fb:39:e6:b9:bb:71:86:51:aa:c1:ed:90:68:
                    3e:f1:37:6a:5a:d8:7b:91:4f:ca:3c:ac:7a:e8:0b:
                    8d:1e:bb:18:8f:d2:8e:ca:a3:41:5b:e3:c3:5c:d3:
                    89:fd:bc:47:b0:dd:05:c9:63
                Exponent: 65537 (0x10001)
        X509v3 extensions:
            X509v3 Subject Key Identifier: 
                4C:D4:01:9C:AD:59:FF:71:E5:24:BE:33:70:DC:36:CB:0C:1C:DE:DC
            X509v3 Authority Key Identifier: 
                keyid:4C:D4:01:9C:AD:59:FF:71:E5:24:BE:33:70:DC:36:CB:0C:1C:DE:DC
                DirName:/C=NL/ST=Noord-Holland/O=SWI-Prolog foundation/OU=ClioPatria demo/CN=Jan Wielemaker/emailAddress=jan@swi-prolog.org
                serial:F4:DE:12:5A:7D:7F:B6:E1

            X509v3 Basic Constraints: 
                CA:TRUE
    Signature Algorithm: sha1WithRSAEncryption
        75:fe:81:eb:f1:09:f6:08:e1:b6:21:ef:ab:b2:fd:0b:9c:db:
        cb:f2:a3:a3:50:9a:74:45:b1:d7:45:fb:fe:52:58:18:73:19:
        25:4f:32:59:6a:d7:57:eb:89:47:4b:c3:3d:4c:47:e1:be:a6:
        0e:13:4a:72:58:54:d5:dc:6e:cf:7c:44:01:75:58:30:67:8f:
        8a:a5:f6:c6:4f:d0:4b:3a:4b:87:c8:9c:e0:d8:36:32:3c:b6:
        73:07:18:12:db:4d:e1:36:d2:be:b1:85:04:06:3e:2c:42:74:
        e2:80:c5:65:07:1b:5e:d7:a6:88:02:11:f6:59:83:91:13:8b:
        d1:63
-----BEGIN CERTIFICATE-----
MIIDvDCCAyWgAwIBAgIJAPTeElp9f7bhMA0GCSqGSIb3DQEBBQUAMIGbMQswCQYD
VQQGEwJOTDEWMBQGA1UECBMNTm9vcmQtSG9sbGFuZDEeMBwGA1UEChMVU1dJLVBy
b2xvZyBmb3VuZGF0aW9uMRgwFgYDVQQLEw9DbGlvUGF0cmlhIGRlbW8xFzAVBgNV
BAMTDkphbiBXaWVsZW1ha2VyMSEwHwYJKoZIhvcNAQkBFhJqYW5Ac3dpLXByb2xv
Zy5vcmcwHhcNMTAxMTAzMjA1MTEyWhcNMTMxMTAyMjA1MTEyWjCBmzELMAkGA1UE
BhMCTkwxFjAUBgNVBAgTDU5vb3JkLUhvbGxhbmQxHjAcBgNVBAoTFVNXSS1Qcm9s
b2cgZm91bmRhdGlvbjEYMBYGA1UECxMPQ2xpb1BhdHJpYSBkZW1vMRcwFQYDVQQD
Ew5KYW4gV2llbGVtYWtlcjEhMB8GCSqGSIb3DQEJARYSamFuQHN3aS1wcm9sb2cu
b3JnMIGfMA0GCSqGSIb3DQEBAQUAA4GNADCBiQKBgQDDUfbZuDIxny6h0D9a8FOb
jjiB1aqm41QW3bqbK9y639BzVOuV5HpDpNEMiGMckkwFk5WmrM2EvgKxwRnQRDmf
BR8Aw2SRGa/YOEDI+znmubtxhlGqwe2QaD7xN2pa2HuRT8o8rHroC40euxiP0o7K
o0Fb48Nc04n9vEew3QXJYwIDAQABo4IBBDCCAQAwHQYDVR0OBBYEFEzUAZytWf9x
5SS+M3DcNssMHN7cMIHQBgNVHSMEgcgwgcWAFEzUAZytWf9x5SS+M3DcNssMHN7c
oYGhpIGeMIGbMQswCQYDVQQGEwJOTDEWMBQGA1UECBMNTm9vcmQtSG9sbGFuZDEe
MBwGA1UEChMVU1dJLVByb2xvZyBmb3VuZGF0aW9uMRgwFgYDVQQLEw9DbGlvUGF0
cmlhIGRlbW8xFzAVBgNVBAMTDkphbiBXaWVsZW1ha2VyMSEwHwYJKoZIhvcNAQkB
FhJqYW5Ac3dpLXByb2xvZy5vcmeCCQD03hJafX+24TAMBgNVHRMEBTADAQH/MA0G
CSqGSIb3DQEBBQUAA4GBAHX+gevxCfYI4bYh76uy/Quc28vyo6NQmnRFsddF+/5S
WBhzGSVPMllq11friUdLwz1MR+G+pg4TSnJYVNXcbs98RAF1WDBnj4ql9sZP0Es6
S4fInODYNjI8tnMHGBLbTeE20r6xhQQGPixCdOKAxWUHG17XpogCEfZZg5ETi9Fj
-----END CERTIFICATE-----
